target datalayout = "e-m:e-p270:32:32-p271:32:32-p272:64:64-i64:64-f80:128-n8:16:32:64-S128"
target triple = "x86_64-pc-linux-gnu"

@.str = private unnamed_addr constant [7 x i8] c"%d%c%d\00", align 1
@.str.1 = private unnamed_addr constant [3 x i8] c"%d\00", align 1
@.str.2 = private unnamed_addr constant [7 x i8] c"%d+%d\0A\00", align 1
@.str.3 = private unnamed_addr constant [3 x i8] c"No\00", align 1

; Function Attrs: noinline nounwind uwtable
define dso_local i32 @main() #0 {
  %1 = alloca i32, align 4
  %2 = alloca i32, align 4
  %3 = alloca i32, align 4
  %4 = alloca [10 x [10 x i32]], align 16
  %5 = alloca i32, align 4
  %6 = alloca i32, align 4
  %7 = alloca [10 x i32], align 16
  %8 = alloca [10 x i32], align 16
  %9 = alloca i32, align 4
  %10 = alloca i8, align 1
  store i32 0, i32* %1, align 4
  store i32 0, i32* %9, align 4
  %11 = call i32 (i8*, ...) @__isoc99_scanf(i8* getelementptr inbounds ([7 x i8], [7 x i8]* @.str, i64 0, i64 0), i32* %2, i8* %10, i32* %3)
  store i32 0, i32* %5, align 4
  br label %12

12:                                               ; preds = %33, %0
  %13 = load i32, i32* %5, align 4
  %14 = load i32, i32* %2, align 4
  %15 = icmp slt i32 %13, %14
  br i1 %15, label %16, label %36

16:                                               ; preds = %12
  store i32 0, i32* %6, align 4
  br label %17

17:                                               ; preds = %29, %16
  %18 = load i32, i32* %6, align 4
  %19 = load i32, i32* %3, align 4
  %20 = icmp slt i32 %18, %19
  br i1 %20, label %21, label %32

21:                                               ; preds = %17
  %22 = load i32, i32* %5, align 4
  %23 = sext i32 %22 to i64
  %24 = getelementptr inbounds [10 x [10 x i32]], [10 x [10 x i32]]* %4, i64 0, i64 %23
  %25 = load i32, i32* %6, align 4
  %26 = sext i32 %25 to i64
  %27 = getelementptr inbounds [10 x i32], [10 x i32]* %24, i64 0, i64 %26
  %28 = call i32 (i8*, ...) @__isoc99_scanf(i8* getelementptr inbounds ([3 x i8], [3 x i8]* @.str.1, i64 0, i64 0), i32* %27)
  br label %29

29:                                               ; preds = %21
  %30 = load i32, i32* %6, align 4
  %31 = add nsw i32 %30, 1
  store i32 %31, i32* %6, align 4
  br label %17

32:                                               ; preds = %17
  br label %33

33:                                               ; preds = %32
  %34 = load i32, i32* %5, align 4
  %35 = add nsw i32 %34, 1
  store i32 %35, i32* %5, align 4
  br label %12

36:                                               ; preds = %12
  store i32 0, i32* %5, align 4
  br label %37

37:                                               ; preds = %50, %36
  %38 = load i32, i32* %5, align 4
  %39 = load i32, i32* %2, align 4
  %40 = icmp slt i32 %38, %39
  br i1 %40, label %41, label %53

41:                                               ; preds = %37
  %42 = load i32, i32* %5, align 4
  %43 = sext i32 %42 to i64
  %44 = getelementptr inbounds [10 x [10 x i32]], [10 x [10 x i32]]* %4, i64 0, i64 %43
  %45 = getelementptr inbounds [10 x i32], [10 x i32]* %44, i64 0, i64 0
  %46 = load i32, i32* %45, align 8
  %47 = load i32, i32* %5, align 4
  %48 = sext i32 %47 to i64
  %49 = getelementptr inbounds [10 x i32], [10 x i32]* %7, i64 0, i64 %48
  store i32 %46, i32* %49, align 4
  br label %50

50:                                               ; preds = %41
  %51 = load i32, i32* %5, align 4
  %52 = add nsw i32 %51, 1
  store i32 %52, i32* %5, align 4
  br label %37

53:                                               ; preds = %37
  store i32 0, i32* %6, align 4
  br label %54

54:                                               ; preds = %67, %53
  %55 = load i32, i32* %6, align 4
  %56 = load i32, i32* %3, align 4
  %57 = icmp slt i32 %55, %56
  br i1 %57, label %58, label %70

58:                                               ; preds = %54
  %59 = getelementptr inbounds [10 x [10 x i32]], [10 x [10 x i32]]* %4, i64 0, i64 0
  %60 = load i32, i32* %6, align 4
  %61 = sext i32 %60 to i64
  %62 = getelementptr inbounds [10 x i32], [10 x i32]* %59, i64 0, i64 %61
  %63 = load i32, i32* %62, align 4
  %64 = load i32, i32* %6, align 4
  %65 = sext i32 %64 to i64
  %66 = getelementptr inbounds [10 x i32], [10 x i32]* %8, i64 0, i64 %65
  store i32 %63, i32* %66, align 4
  br label %67

67:                                               ; preds = %58
  %68 = load i32, i32* %6, align 4
  %69 = add nsw i32 %68, 1
  store i32 %69, i32* %6, align 4
  br label %54

70:                                               ; preds = %54
  store i32 0, i32* %5, align 4
  br label %71

71:                                               ; preds = %133, %70
  %72 = load i32, i32* %5, align 4
  %73 = load i32, i32* %2, align 4
  %74 = icmp slt i32 %72, %73
  br i1 %74, label %75, label %136

75:                                               ; preds = %71
  store i32 0, i32* %6, align 4
  br label %76

76:                                               ; preds = %129, %75
  %77 = load i32, i32* %6, align 4
  %78 = load i32, i32* %3, align 4
  %79 = icmp slt i32 %77, %78
  br i1 %79, label %80, label %132

80:                                               ; preds = %76
  %81 = load i32, i32* %5, align 4
  %82 = sext i32 %81 to i64
  %83 = getelementptr inbounds [10 x [10 x i32]], [10 x [10 x i32]]* %4, i64 0, i64 %82
  %84 = load i32, i32* %6, align 4
  %85 = sext i32 %84 to i64
  %86 = getelementptr inbounds [10 x i32], [10 x i32]* %83, i64 0, i64 %85
  %87 = load i32, i32* %86, align 4
  %88 = load i32, i32* %5, align 4
  %89 = sext i32 %88 to i64
  %90 = getelementptr inbounds [10 x i32], [10 x i32]* %7, i64 0, i64 %89
  %91 = load i32, i32* %90, align 4
  %92 = icmp sgt i32 %87, %91
  br i1 %92, label %93, label %104

93:                                               ; preds = %80
  %94 = load i32, i32* %5, align 4
  %95 = sext i32 %94 to i64
  %96 = getelementptr inbounds [10 x [10 x i32]], [10 x [10 x i32]]* %4, i64 0, i64 %95
  %97 = load i32, i32* %6, align 4
  %98 = sext i32 %97 to i64
  %99 = getelementptr inbounds [10 x i32], [10 x i32]* %96, i64 0, i64 %98
  %100 = load i32, i32* %99, align 4
  %101 = load i32, i32* %5, align 4
  %102 = sext i32 %101 to i64
  %103 = getelementptr inbounds [10 x i32], [10 x i32]* %7, i64 0, i64 %102
  store i32 %100, i32* %103, align 4
  br label %104

104:                                              ; preds = %93, %80
  %105 = load i32, i32* %5, align 4
  %106 = sext i32 %105 to i64
  %107 = getelementptr inbounds [10 x [10 x i32]], [10 x [10 x i32]]* %4, i64 0, i64 %106
  %108 = load i32, i32* %6, align 4
  %109 = sext i32 %108 to i64
  %110 = getelementptr inbounds [10 x i32], [10 x i32]* %107, i64 0, i64 %109
  %111 = load i32, i32* %110, align 4
  %112 = load i32, i32* %6, align 4
  %113 = sext i32 %112 to i64
  %114 = getelementptr inbounds [10 x i32], [10 x i32]* %8, i64 0, i64 %113
  %115 = load i32, i32* %114, align 4
  %116 = icmp slt i32 %111, %115
  br i1 %116, label %117, label %128

117:                                              ; preds = %104
  %118 = load i32, i32* %5, align 4
  %119 = sext i32 %118 to i64
  %120 = getelementptr inbounds [10 x [10 x i32]], [10 x [10 x i32]]* %4, i64 0, i64 %119
  %121 = load i32, i32* %6, align 4
  %122 = sext i32 %121 to i64
  %123 = getelementptr inbounds [10 x i32], [10 x i32]* %120, i64 0, i64 %122
  %124 = load i32, i32* %123, align 4
  %125 = load i32, i32* %6, align 4
  %126 = sext i32 %125 to i64
  %127 = getelementptr inbounds [10 x i32], [10 x i32]* %8, i64 0, i64 %126
  store i32 %124, i32* %127, align 4
  br label %128

128:                                              ; preds = %117, %104
  br label %129

129:                                              ; preds = %128
  %130 = load i32, i32* %6, align 4
  %131 = add nsw i32 %130, 1
  store i32 %131, i32* %6, align 4
  br label %76

132:                                              ; preds = %76
  br label %133

133:                                              ; preds = %132
  %134 = load i32, i32* %5, align 4
  %135 = add nsw i32 %134, 1
  store i32 %135, i32* %5, align 4
  br label %71

136:                                              ; preds = %71
  store i32 0, i32* %5, align 4
  br label %137

137:                                              ; preds = %167, %136
  %138 = load i32, i32* %5, align 4
  %139 = load i32, i32* %2, align 4
  %140 = icmp slt i32 %138, %139
  br i1 %140, label %141, label %170

141:                                              ; preds = %137
  store i32 0, i32* %6, align 4
  br label %142

142:                                              ; preds = %163, %141
  %143 = load i32, i32* %6, align 4
  %144 = load i32, i32* %3, align 4
  %145 = icmp slt i32 %143, %144
  br i1 %145, label %146, label %166

146:                                              ; preds = %142
  %147 = load i32, i32* %5, align 4
  %148 = sext i32 %147 to i64
  %149 = getelementptr inbounds [10 x i32], [10 x i32]* %7, i64 0, i64 %148
  %150 = load i32, i32* %149, align 4
  %151 = load i32, i32* %6, align 4
  %152 = sext i32 %151 to i64
  %153 = getelementptr inbounds [10 x i32], [10 x i32]* %8, i64 0, i64 %152
  %154 = load i32, i32* %153, align 4
  %155 = icmp eq i32 %150, %154
  br i1 %155, label %156, label %162

156:                                              ; preds = %146
  %157 = load i32, i32* %5, align 4
  %158 = load i32, i32* %6, align 4
  %159 = call i32 (i8*, ...) @printf(i8* getelementptr inbounds ([7 x i8], [7 x i8]* @.str.2, i64 0, i64 0), i32 %157, i32 %158)
  %160 = load i32, i32* %9, align 4
  %161 = add nsw i32 %160, 1
  store i32 %161, i32* %9, align 4
  br label %162

162:                                              ; preds = %156, %146
  br label %163

163:                                              ; preds = %162
  %164 = load i32, i32* %6, align 4
  %165 = add nsw i32 %164, 1
  store i32 %165, i32* %6, align 4
  br label %142

166:                                              ; preds = %142
  br label %167

167:                                              ; preds = %166
  %168 = load i32, i32* %5, align 4
  %169 = add nsw i32 %168, 1
  store i32 %169, i32* %5, align 4
  br label %137

170:                                              ; preds = %137
  %171 = load i32, i32* %9, align 4
  %172 = icmp eq i32 %171, 0
  br i1 %172, label %173, label %175

173:                                              ; preds = %170
  %174 = call i32 (i8*, ...) @printf(i8* getelementptr inbounds ([3 x i8], [3 x i8]* @.str.3, i64 0, i64 0))
  br label %175

175:                                              ; preds = %173, %170
  ret i32 0
}